target datalayout = "e-m:e-p270:32:32-p271:32:32-p272:64:64-i64:64-i128:128-f80:128-n8:16:32:64-S128"
target triple = "x86_64-pc-linux-gnu"

%"class.ozz::io::Stream" = type { ptr }
%"class.ozz::io::MemoryStream" = type { %"class.ozz::io::Stream", ptr, i64, i32, i32 }

; Function Attrs: alwaysinline mustprogress nounwind uwtable
define linkonce_odr dso_local noundef i64 @_ZN3ozz5AlignImEET_S1_m(i64 noundef %0, i64 noundef %1) #7 comdat {
  %3 = alloca i64, align 8
  %4 = alloca i64, align 8
  store i64 %0, ptr %3, align 8, !tbaa !21
  store i64 %1, ptr %4, align 8, !tbaa !21
  %5 = load i64, ptr %3, align 8, !tbaa !21
  %6 = load i64, ptr %4, align 8, !tbaa !21
  %7 = sub i64 %6, 1
  %8 = add i64 %5, %7
  %9 = load i64, ptr %4, align 8, !tbaa !21
  %10 = sub i64 0, %9
  %11 = and i64 %8, %10
  ret i64 %11
}

; Function Attrs: alwaysinline mustprogress nounwind uwtable
define linkonce_odr dso_local noundef i32 @_ZN3ozz4math3MaxIiEET_S2_S2_(i32 noundef %0, i32 noundef %1) #7 comdat {
  %3 = alloca i32, align 4
  %4 = alloca i32, align 4
  store i32 %0, ptr %3, align 4, !tbaa !23
  store i32 %1, ptr %4, align 4, !tbaa !23
  %5 = load i32, ptr %4, align 4, !tbaa !23
  %6 = load i32, ptr %3, align 4, !tbaa !23
  %7 = icmp slt i32 %5, %6
  br i1 %7, label %8, label %10

8:                                                ; preds = %2
  %9 = load i32, ptr %3, align 4, !tbaa !23
  br label %12

10:                                               ; preds = %2
  %11 = load i32, ptr %4, align 4, !tbaa !23
  br label %12

12:                                               ; preds = %10, %8
  %13 = phi i32 [ %9, %8 ], [ %11, %10 ]
  ret i32 %13
}

; Function Attrs: mustprogress uwtable
define dso_local noundef zeroext i1 @_ZN3ozz2io12MemoryStream6ResizeEm(ptr noundef nonnull align 8 dereferenceable(32) %0, i64 noundef %1) #0 align 2 {
  %3 = alloca ptr, align 8
  %4 = alloca i64, align 8
  %5 = alloca i64, align 8
  %6 = alloca ptr, align 8
  store ptr %0, ptr %3, align 8, !tbaa !27
  store i64 %1, ptr %4, align 8, !tbaa !21
  %7 = load ptr, ptr %3, align 8
  %8 = load i64, ptr %4, align 8, !tbaa !21
  %9 = getelementptr inbounds nuw %"class.ozz::io::MemoryStream", ptr %7, i32 0, i32 2
  %10 = load i64, ptr %9, align 8, !tbaa !31
  %11 = icmp ugt i64 %8, %10
  br i1 %11, label %12, label %41

12:                                               ; preds = %2
  call void @llvm.lifetime.start.p0(i64 8, ptr %5) #10
  %13 = load i64, ptr %4, align 8, !tbaa !21
  %14 = call noundef i64 @_ZN3ozz5AlignImEET_S1_m(i64 noundef %13, i64 noundef 16384)
  store i64 %14, ptr %5, align 8, !tbaa !21
  call void @llvm.lifetime.start.p0(i64 8, ptr %6) #10
  %15 = call noundef ptr @_ZN3ozz6memory17default_allocatorEv()
  %16 = load i64, ptr %5, align 8, !tbaa !21
  %17 = load ptr, ptr %15, align 8, !tbaa !13
  %18 = getelementptr inbounds ptr, ptr %17, i64 2
  %19 = load ptr, ptr %18, align 8
  %20 = call noundef ptr %19(ptr noundef nonnull align 8 dereferenceable(8) %15, i64 noundef %16, i64 noundef 16)
  store ptr %20, ptr %6, align 8, !tbaa !4
  %21 = getelementptr inbounds nuw %"class.ozz::io::MemoryStream", ptr %7, i32 0, i32 1
  %22 = load ptr, ptr %21, align 8, !tbaa !29
  %23 = icmp ne ptr %22, null
  br i1 %23, label %24, label %30

24:                                               ; preds = %12
  %25 = load ptr, ptr %6, align 8, !tbaa !4
  %26 = getelementptr inbounds nuw %"class.ozz::io::MemoryStream", ptr %7, i32 0, i32 1
  %27 = load ptr, ptr %26, align 8, !tbaa !29
  %28 = getelementptr inbounds nuw %"class.ozz::io::MemoryStream", ptr %7, i32 0, i32 2
  %29 = load i64, ptr %28, align 8, !tbaa !31
  call void @llvm.memcpy.p0.p0.i64(ptr align 1 %25, ptr align 1 %27, i64 %29, i1 false)
  br label %30

30:                                               ; preds = %24, %12
  %31 = call noundef ptr @_ZN3ozz6memory17default_allocatorEv()
  %32 = getelementptr inbounds nuw %"class.ozz::io::MemoryStream", ptr %7, i32 0, i32 1
  %33 = load ptr, ptr %32, align 8, !tbaa !29
  %34 = load ptr, ptr %31, align 8, !tbaa !13
  %35 = getelementptr inbounds ptr, ptr %34, i64 3
  %36 = load ptr, ptr %35, align 8
  call void %36(ptr noundef nonnull align 8 dereferenceable(8) %31, ptr noundef %33)
  %37 = load ptr, ptr %6, align 8, !tbaa !4
  %38 = getelementptr inbounds nuw %"class.ozz::io::MemoryStream", ptr %7, i32 0, i32 1
  store ptr %37, ptr %38, align 8, !tbaa !29
  %39 = load i64, ptr %5, align 8, !tbaa !21
  %40 = getelementptr inbounds nuw %"class.ozz::io::MemoryStream", ptr %7, i32 0, i32 2
  store i64 %39, ptr %40, align 8, !tbaa !31
  call void @llvm.lifetime.end.p0(i64 8, ptr %6) #10
  call void @llvm.lifetime.end.p0(i64 8, ptr %5) #10
  br label %41

41:                                               ; preds = %30, %2
  %42 = load i64, ptr %4, align 8, !tbaa !21
  %43 = icmp eq i64 %42, 0
  br i1 %43, label %48, label %44

44:                                               ; preds = %41
  %45 = getelementptr inbounds nuw %"class.ozz::io::MemoryStream", ptr %7, i32 0, i32 1
  %46 = load ptr, ptr %45, align 8, !tbaa !29
  %47 = icmp ne ptr %46, null
  br label %48

48:                                               ; preds = %44, %41
  %49 = phi i1 [ true, %41 ], [ %47, %44 ]
  ret i1 %49
}

; Function Attrs: mustprogress uwtable
define dso_local noundef i64 @_ZN3ozz2io12MemoryStream5WriteEPKvm(ptr noundef nonnull align 8 dereferenceable(32) %0, ptr noundef %1, i64 noundef %2) unnamed_addr #0 align 2 {
  %4 = alloca i64, align 8
  %5 = alloca ptr, align 8
  %6 = alloca ptr, align 8
  %7 = alloca i64, align 8
  %8 = alloca i64, align 8
  %9 = alloca i32, align 4
  %10 = alloca i32, align 4
  %11 = alloca i32, align 4
  store ptr %0, ptr %5, align 8, !tbaa !27
  store ptr %1, ptr %6, align 8, !tbaa !20
  store i64 %2, ptr %7, align 8, !tbaa !21
  %12 = load ptr, ptr %5, align 8
  %13 = load i64, ptr %7, align 8, !tbaa !21
  %14 = icmp ugt i64 %13, 2147483647
  br i1 %14, label %22, label %15

15:                                               ; preds = %3
  %16 = getelementptr inbounds nuw %"class.ozz::io::MemoryStream", ptr %12, i32 0, i32 4
  %17 = load i32, ptr %16, align 4, !tbaa !33
  %18 = load i64, ptr %7, align 8, !tbaa !21
  %19 = sub i64 2147483647, %18
  %20 = trunc i64 %19 to i32
  %21 = icmp sgt i32 %17, %20
  br i1 %21, label %22, label %23

22:                                               ; preds = %15, %3
  store i64 0, ptr %4, align 8
  br label %83

23:                                               ; preds = %15
  %24 = getelementptr inbounds nuw %"class.ozz::io::MemoryStream", ptr %12, i32 0, i32 4
  %25 = load i32, ptr %24, align 4, !tbaa !33
  %26 = getelementptr inbounds nuw %"class.ozz::io::MemoryStream", ptr %12, i32 0, i32 3
  %27 = load i32, ptr %26, align 8, !tbaa !32
  %28 = icmp sgt i32 %25, %27
  br i1 %28, label %29, label %52

29:                                               ; preds = %23
  %30 = getelementptr inbounds nuw %"class.ozz::io::MemoryStream", ptr %12, i32 0, i32 4
  %31 = load i32, ptr %30, align 4, !tbaa !33
  %32 = sext i32 %31 to i64
  %33 = call noundef zeroext i1 @_ZN3ozz2io12MemoryStream6ResizeEm(ptr noundef nonnull align 8 dereferenceable(32) %12, i64 noundef %32)
  br i1 %33, label %35, label %34

34:                                               ; preds = %29
  store i64 0, ptr %4, align 8
  br label %83

35:                                               ; preds = %29
  call void @llvm.lifetime.start.p0(i64 8, ptr %8) #10
  %36 = getelementptr inbounds nuw %"class.ozz::io::MemoryStream", ptr %12, i32 0, i32 4
  %37 = load i32, ptr %36, align 4, !tbaa !33
  %38 = getelementptr inbounds nuw %"class.ozz::io::MemoryStream", ptr %12, i32 0, i32 3
  %39 = load i32, ptr %38, align 8, !tbaa !32
  %40 = sub nsw i32 %37, %39
  %41 = sext i32 %40 to i64
  store i64 %41, ptr %8, align 8, !tbaa !21
  %42 = getelementptr inbounds nuw %"class.ozz::io::MemoryStream", ptr %12, i32 0, i32 1
  %43 = load ptr, ptr %42, align 8, !tbaa !29
  %44 = getelementptr inbounds nuw %"class.ozz::io::MemoryStream", ptr %12, i32 0, i32 3
  %45 = load i32, ptr %44, align 8, !tbaa !32
  %46 = sext i32 %45 to i64
  %47 = getelementptr inbounds i8, ptr %43, i64 %46
  %48 = load i64, ptr %8, align 8, !tbaa !21
  call void @llvm.memset.p0.i64(ptr align 1 %47, i8 0, i64 %48, i1 false)
  %49 = getelementptr inbounds nuw %"class.ozz::io::MemoryStream", ptr %12, i32 0, i32 4
  %50 = load i32, ptr %49, align 4, !tbaa !33
  %51 = getelementptr inbounds nuw %"class.ozz::io::MemoryStream", ptr %12, i32 0, i32 3
  store i32 %50, ptr %51, align 8, !tbaa !32
  call void @llvm.lifetime.end.p0(i64 8, ptr %8) #10
  br label %52

52:                                               ; preds = %35, %23
  call void @llvm.lifetime.start.p0(i64 4, ptr %9) #10
  %53 = load i64, ptr %7, align 8, !tbaa !21
  %54 = trunc i64 %53 to i32
  store i32 %54, ptr %9, align 4, !tbaa !23
  call void @llvm.lifetime.start.p0(i64 4, ptr %10) #10
  %55 = getelementptr inbounds nuw %"class.ozz::io::MemoryStream", ptr %12, i32 0, i32 4
  %56 = load i32, ptr %55, align 4, !tbaa !33
  %57 = load i32, ptr %9, align 4, !tbaa !23
  %58 = add nsw i32 %56, %57
  store i32 %58, ptr %10, align 4, !tbaa !23
  %59 = load i32, ptr %10, align 4, !tbaa !23
  %60 = sext i32 %59 to i64
  %61 = call noundef zeroext i1 @_ZN3ozz2io12MemoryStream6ResizeEm(ptr noundef nonnull align 8 dereferenceable(32) %12, i64 noundef %60)
  br i1 %61, label %62, label %81

62:                                               ; preds = %52
  %63 = load i32, ptr %10, align 4, !tbaa !23
  %64 = getelementptr inbounds nuw %"class.ozz::io::MemoryStream", ptr %12, i32 0, i32 3
  %65 = load i32, ptr %64, align 8, !tbaa !32
  %66 = call noundef i32 @_ZN3ozz4math3MaxIiEET_S2_S2_(i32 noundef %63, i32 noundef %65)
  %67 = getelementptr inbounds nuw %"class.ozz::io::MemoryStream", ptr %12, i32 0, i32 3
  store i32 %66, ptr %67, align 8, !tbaa !32
  %68 = getelementptr inbounds nuw %"class.ozz::io::MemoryStream", ptr %12, i32 0, i32 1
  %69 = load ptr, ptr %68, align 8, !tbaa !29
  %70 = getelementptr inbounds nuw %"class.ozz::io::MemoryStream", ptr %12, i32 0, i32 4
  %71 = load i32, ptr %70, align 4, !tbaa !33
  %72 = sext i32 %71 to i64
  %73 = getelementptr inbounds i8, ptr %69, i64 %72
  %74 = load ptr, ptr %6, align 8, !tbaa !20
  %75 = load i64, ptr %7, align 8, !tbaa !21
  call void @llvm.memcpy.p0.p0.i64(ptr align 1 %73, ptr align 1 %74, i64 %75, i1 false)
  %76 = load i32, ptr %9, align 4, !tbaa !23
  %77 = getelementptr inbounds nuw %"class.ozz::io::MemoryStream", ptr %12, i32 0, i32 4
  %78 = load i32, ptr %77, align 4, !tbaa !33
  %79 = add nsw i32 %78, %76
  store i32 %79, ptr %77, align 4, !tbaa !33
  %80 = load i64, ptr %7, align 8, !tbaa !21
  store i64 %80, ptr %4, align 8
  store i32 1, ptr %11, align 4
  br label %82

81:                                               ; preds = %52
  store i64 0, ptr %4, align 8
  store i32 1, ptr %11, align 4
  br label %82

82:                                               ; preds = %81, %62
  call void @llvm.lifetime.end.p0(i64 4, ptr %10) #10
  call void @llvm.lifetime.end.p0(i64 4, ptr %9) #10
  br label %83

83:                                               ; preds = %82, %34, %22
  %84 = load i64, ptr %4, align 8
  ret i64 %84
}