; Function Attrs: mustprogress uwtable
define dso_local noundef range(i64 0, 2147483648) i64 @_ZN3ozz2io12MemoryStream5WriteEPKvm(ptr noundef nonnull align 8 captures(none) dereferenceable(32) %0, ptr noundef readonly captures(none) %1, i64 noundef %2) unnamed_addr #12 align 2 {
  %4 = icmp ugt i64 %2, 2147483647
  br i1 %4, label %87, label %5

5:                                                ; preds = %3
  %6 = getelementptr inbounds nuw i8, ptr %0, i64 28
  %7 = load i32, ptr %6, align 4, !tbaa !18
  %8 = trunc nuw i64 %2 to i32
  %9 = sub nuw nsw i32 2147483647, %8
  %10 = icmp sgt i32 %7, %9
  br i1 %10, label %87, label %11

11:                                               ; preds = %5
  %12 = getelementptr inbounds nuw i8, ptr %0, i64 24
  %13 = load i32, ptr %12, align 8, !tbaa !19
  %14 = icmp sgt i32 %7, %13
  br i1 %14, label %15, label %50

15:                                               ; preds = %11
  %16 = sext i32 %7 to i64
  %17 = getelementptr inbounds nuw i8, ptr %0, i64 16
  %18 = load i64, ptr %17, align 8, !tbaa !20
  %19 = icmp ult i64 %18, %16
  br i1 %19, label %20, label %._crit_edge.i

._crit_edge.i:                                    ; preds = %15
  %.phi.trans.insert.i = getelementptr inbounds nuw i8, ptr %0, i64 8
  %.pre.i = load ptr, ptr %.phi.trans.insert.i, align 8
  br label %_ZN3ozz2io12MemoryStream6ResizeEm.exit

20:                                               ; preds = %15
  %21 = add nsw i64 %16, 16383
  %22 = and i64 %21, -16384
  %23 = tail call noundef ptr @_ZN3ozz6memory17default_allocatorEv()
  %24 = load ptr, ptr %23, align 8, !tbaa !4
  %25 = getelementptr inbounds nuw i8, ptr %24, i64 16
  %26 = load ptr, ptr %25, align 8
  %27 = tail call noundef ptr %26(ptr noundef nonnull align 8 dereferenceable(8) %23, i64 noundef %22, i64 noundef 16)
  %28 = getelementptr inbounds nuw i8, ptr %0, i64 8
  %29 = load ptr, ptr %28, align 8, !tbaa !14
  %.not.i = icmp eq ptr %29, null
  br i1 %.not.i, label %32, label %30

30:                                               ; preds = %20
  %31 = load i64, ptr %17, align 8, !tbaa !20
  tail call void @llvm.memcpy.p0.p0.i64(ptr align 1 %27, ptr nonnull align 1 %29, i64 %31, i1 false)
  br label %32

32:                                               ; preds = %30, %20
  %33 = tail call noundef ptr @_ZN3ozz6memory17default_allocatorEv()
  %34 = load ptr, ptr %28, align 8, !tbaa !14
  %35 = load ptr, ptr %33, align 8, !tbaa !4
  %36 = getelementptr inbounds nuw i8, ptr %35, i64 24
  %37 = load ptr, ptr %36, align 8
  tail call void %37(ptr noundef nonnull align 8 dereferenceable(8) %33, ptr noundef %34)
  store ptr %27, ptr %28, align 8, !tbaa !14
  store i64 %22, ptr %17, align 8, !tbaa !20
  br label %_ZN3ozz2io12MemoryStream6ResizeEm.exit

_ZN3ozz2io12MemoryStream6ResizeEm.exit:           ; preds = %._crit_edge.i, %32
  %38 = phi ptr [ %.pre.i, %._crit_edge.i ], [ %27, %32 ]
  %39 = icmp eq i32 %7, 0
  %40 = icmp ne ptr %38, null
  %41 = select i1 %39, i1 true, i1 %40
  br i1 %41, label %42, label %87

42:                                               ; preds = %_ZN3ozz2io12MemoryStream6ResizeEm.exit
  %43 = load i32, ptr %6, align 4, !tbaa !18
  %44 = load i32, ptr %12, align 8, !tbaa !19
  %45 = sub nsw i32 %43, %44
  %46 = sext i32 %45 to i64
  %47 = sext i32 %44 to i64
  %48 = getelementptr inbounds i8, ptr %38, i64 %47
  tail call void @llvm.memset.p0.i64(ptr align 1 %48, i8 0, i64 %46, i1 false)
  %49 = load i32, ptr %6, align 4, !tbaa !18
  store i32 %49, ptr %12, align 8, !tbaa !19
  br label %50

50:                                               ; preds = %42, %11
  %51 = phi i32 [ %49, %42 ], [ %7, %11 ]
  %52 = add nsw i32 %51, %8
  %53 = sext i32 %52 to i64
  %54 = getelementptr inbounds nuw i8, ptr %0, i64 16
  %55 = load i64, ptr %54, align 8, !tbaa !20
  %56 = icmp ult i64 %55, %53
  br i1 %56, label %57, label %._crit_edge.i14

._crit_edge.i14:                                  ; preds = %50
  %.phi.trans.insert.i15 = getelementptr inbounds nuw i8, ptr %0, i64 8
  %.pre.i16 = load ptr, ptr %.phi.trans.insert.i15, align 8
  br label %_ZN3ozz2io12MemoryStream6ResizeEm.exit18

57:                                               ; preds = %50
  %58 = add nsw i64 %53, 16383
  %59 = and i64 %58, -16384
  %60 = tail call noundef ptr @_ZN3ozz6memory17default_allocatorEv()
  %61 = load ptr, ptr %60, align 8, !tbaa !4
  %62 = getelementptr inbounds nuw i8, ptr %61, i64 16
  %63 = load ptr, ptr %62, align 8
  %64 = tail call noundef ptr %63(ptr noundef nonnull align 8 dereferenceable(8) %60, i64 noundef %59, i64 noundef 16)
  %65 = getelementptr inbounds nuw i8, ptr %0, i64 8
  %66 = load ptr, ptr %65, align 8, !tbaa !14
  %.not.i17 = icmp eq ptr %66, null
  br i1 %.not.i17, label %69, label %67

67:                                               ; preds = %57
  %68 = load i64, ptr %54, align 8, !tbaa !20
  tail call void @llvm.memcpy.p0.p0.i64(ptr align 1 %64, ptr nonnull align 1 %66, i64 %68, i1 false)
  br label %69

69:                                               ; preds = %67, %57
  %70 = tail call noundef ptr @_ZN3ozz6memory17default_allocatorEv()
  %71 = load ptr, ptr %65, align 8, !tbaa !14
  %72 = load ptr, ptr %70, align 8, !tbaa !4
  %73 = getelementptr inbounds nuw i8, ptr %72, i64 24
  %74 = load ptr, ptr %73, align 8
  tail call void %74(ptr noundef nonnull align 8 dereferenceable(8) %70, ptr noundef %71)
  store ptr %64, ptr %65, align 8, !tbaa !14
  store i64 %59, ptr %54, align 8, !tbaa !20
  br label %_ZN3ozz2io12MemoryStream6ResizeEm.exit18

_ZN3ozz2io12MemoryStream6ResizeEm.exit18:         ; preds = %._crit_edge.i14, %69
  %75 = phi ptr [ %.pre.i16, %._crit_edge.i14 ], [ %64, %69 ]
  %76 = icmp eq i32 %52, 0
  %77 = icmp ne ptr %75, null
  %78 = select i1 %76, i1 true, i1 %77
  br i1 %78, label %79, label %87

79:                                               ; preds = %_ZN3ozz2io12MemoryStream6ResizeEm.exit18
  %80 = load i32, ptr %12, align 8, !tbaa !19
  %81 = tail call noundef i32 @llvm.smax.i32(i32 %80, i32 %52)
  store i32 %81, ptr %12, align 8, !tbaa !19
  %82 = load i32, ptr %6, align 4, !tbaa !18
  %83 = sext i32 %82 to i64
  %84 = getelementptr inbounds i8, ptr %75, i64 %83
  tail call void @llvm.memcpy.p0.p0.i64(ptr align 1 %84, ptr align 1 %1, i64 %2, i1 false)
  %85 = load i32, ptr %6, align 4, !tbaa !18
  %86 = add nsw i32 %85, %8
  store i32 %86, ptr %6, align 4, !tbaa !18
  br label %87

87:                                               ; preds = %79, %_ZN3ozz2io12MemoryStream6ResizeEm.exit18, %_ZN3ozz2io12MemoryStream6ResizeEm.exit, %3, %5
  %.0 = phi i64 [ 0, %5 ], [ 0, %3 ], [ 0, %_ZN3ozz2io12MemoryStream6ResizeEm.exit ], [ %2, %79 ], [ 0, %_ZN3ozz2io12MemoryStream6ResizeEm.exit18 ]
  ret i64 %.0
}